target datalayout = "e-m:e-p270:32:32-p271:32:32-p272:64:64-i64:64-i128:128-f80:128-n8:16:32:64-S128"
target triple = "x86_64-pc-linux-gnu"

%struct.sdshdr8 = type { i8, i8, i8, [0 x i8] }
%struct.sdshdr16 = type <{ i16, i16, i8, [0 x i8] }>
%struct.sdshdr32 = type <{ i32, i32, i8, [0 x i8] }>
%struct.sdshdr64 = type <{ i64, i64, i8, [0 x i8] }>
%struct.zsetopval = type { i32, [32 x i8], ptr, ptr, i32, i64, double }

; Function Attrs: inlinehint nounwind uwtable
define internal i64 @sdslen(ptr noundef %0) #8 {
  %2 = alloca i64, align 8
  %3 = alloca ptr, align 8
  %4 = alloca i8, align 1
  %5 = alloca i32, align 4
  store ptr %0, ptr %3, align 8, !tbaa !11
  call void @llvm.lifetime.start.p0(i64 1, ptr %4) #12
  %6 = load ptr, ptr %3, align 8, !tbaa !11
  %7 = getelementptr inbounds i8, ptr %6, i64 -1
  %8 = load i8, ptr %7, align 1, !tbaa !86
  store i8 %8, ptr %4, align 1, !tbaa !86
  %9 = load i8, ptr %4, align 1, !tbaa !86
  %10 = zext i8 %9 to i32
  %11 = and i32 %10, 7
  switch i32 %11, label %40 [
    i32 0, label %12
    i32 1, label %17
    i32 2, label %23
    i32 3, label %29
    i32 4, label %35
  ]

12:                                               ; preds = %1
  %13 = load i8, ptr %4, align 1, !tbaa !86
  %14 = zext i8 %13 to i32
  %15 = ashr i32 %14, 3
  %16 = sext i32 %15 to i64
  store i64 %16, ptr %2, align 8
  store i32 1, ptr %5, align 4
  br label %41

17:                                               ; preds = %1
  %18 = load ptr, ptr %3, align 8, !tbaa !11
  %19 = getelementptr inbounds i8, ptr %18, i64 -3
  %20 = getelementptr inbounds nuw %struct.sdshdr8, ptr %19, i32 0, i32 0
  %21 = load i8, ptr %20, align 1, !tbaa !86
  %22 = zext i8 %21 to i64
  store i64 %22, ptr %2, align 8
  store i32 1, ptr %5, align 4
  br label %41

23:                                               ; preds = %1
  %24 = load ptr, ptr %3, align 8, !tbaa !11
  %25 = getelementptr inbounds i8, ptr %24, i64 -5
  %26 = getelementptr inbounds nuw %struct.sdshdr16, ptr %25, i32 0, i32 0
  %27 = load i16, ptr %26, align 1, !tbaa !90
  %28 = zext i16 %27 to i64
  store i64 %28, ptr %2, align 8
  store i32 1, ptr %5, align 4
  br label %41

29:                                               ; preds = %1
  %30 = load ptr, ptr %3, align 8, !tbaa !11
  %31 = getelementptr inbounds i8, ptr %30, i64 -9
  %32 = getelementptr inbounds nuw %struct.sdshdr32, ptr %31, i32 0, i32 0
  %33 = load i32, ptr %32, align 1, !tbaa !5
  %34 = zext i32 %33 to i64
  store i64 %34, ptr %2, align 8
  store i32 1, ptr %5, align 4
  br label %41

35:                                               ; preds = %1
  %36 = load ptr, ptr %3, align 8, !tbaa !11
  %37 = getelementptr inbounds i8, ptr %36, i64 -17
  %38 = getelementptr inbounds nuw %struct.sdshdr64, ptr %37, i32 0, i32 0
  %39 = load i64, ptr %38, align 1, !tbaa !31
  store i64 %39, ptr %2, align 8
  store i32 1, ptr %5, align 4
  br label %41

40:                                               ; preds = %1
  store i64 0, ptr %2, align 8
  store i32 1, ptr %5, align 4
  br label %41

41:                                               ; preds = %40, %35, %29, %23, %17, %12
  call void @llvm.lifetime.end.p0(i64 1, ptr %4) #12
  %42 = load i64, ptr %2, align 8
  ret i64 %42
}

; Function Attrs: nounwind uwtable
define dso_local i32 @zuiLongLongFromValue(ptr noundef %0) #0 {
  %2 = alloca ptr, align 8
  store ptr %0, ptr %2, align 8, !tbaa !45
  %3 = load ptr, ptr %2, align 8, !tbaa !45
  %4 = getelementptr inbounds nuw %struct.zsetopval, ptr %3, i32 0, i32 0
  %5 = load i32, ptr %4, align 8, !tbaa !179
  %6 = and i32 %5, 2
  %7 = icmp ne i32 %6, 0
  br i1 %7, label %65, label %8

8:                                                ; preds = %1
  %9 = load ptr, ptr %2, align 8, !tbaa !45
  %10 = getelementptr inbounds nuw %struct.zsetopval, ptr %9, i32 0, i32 0
  %11 = load i32, ptr %10, align 8, !tbaa !179
  %12 = or i32 %11, 2
  store i32 %12, ptr %10, align 8, !tbaa !179
  %13 = load ptr, ptr %2, align 8, !tbaa !45
  %14 = getelementptr inbounds nuw %struct.zsetopval, ptr %13, i32 0, i32 2
  %15 = load ptr, ptr %14, align 8, !tbaa !181
  %16 = icmp ne ptr %15, null
  br i1 %16, label %17, label %35

17:                                               ; preds = %8
  %18 = load ptr, ptr %2, align 8, !tbaa !45
  %19 = getelementptr inbounds nuw %struct.zsetopval, ptr %18, i32 0, i32 2
  %20 = load ptr, ptr %19, align 8, !tbaa !181
  %21 = load ptr, ptr %2, align 8, !tbaa !45
  %22 = getelementptr inbounds nuw %struct.zsetopval, ptr %21, i32 0, i32 2
  %23 = load ptr, ptr %22, align 8, !tbaa !181
  %24 = call i64 @sdslen(ptr noundef %23)
  %25 = load ptr, ptr %2, align 8, !tbaa !45
  %26 = getelementptr inbounds nuw %struct.zsetopval, ptr %25, i32 0, i32 5
  %27 = call i32 @string2ll(ptr noundef %20, i64 noundef %24, ptr noundef %26)
  %28 = icmp ne i32 %27, 0
  br i1 %28, label %29, label %34

29:                                               ; preds = %17
  %30 = load ptr, ptr %2, align 8, !tbaa !45
  %31 = getelementptr inbounds nuw %struct.zsetopval, ptr %30, i32 0, i32 0
  %32 = load i32, ptr %31, align 8, !tbaa !179
  %33 = or i32 %32, 4
  store i32 %33, ptr %31, align 8, !tbaa !179
  br label %34

34:                                               ; preds = %29, %17
  br label %64

35:                                               ; preds = %8
  %36 = load ptr, ptr %2, align 8, !tbaa !45
  %37 = getelementptr inbounds nuw %struct.zsetopval, ptr %36, i32 0, i32 3
  %38 = load ptr, ptr %37, align 8, !tbaa !184
  %39 = icmp ne ptr %38, null
  br i1 %39, label %40, label %58

40:                                               ; preds = %35
  %41 = load ptr, ptr %2, align 8, !tbaa !45
  %42 = getelementptr inbounds nuw %struct.zsetopval, ptr %41, i32 0, i32 3
  %43 = load ptr, ptr %42, align 8, !tbaa !184
  %44 = load ptr, ptr %2, align 8, !tbaa !45
  %45 = getelementptr inbounds nuw %struct.zsetopval, ptr %44, i32 0, i32 4
  %46 = load i32, ptr %45, align 8, !tbaa !185
  %47 = zext i32 %46 to i64
  %48 = load ptr, ptr %2, align 8, !tbaa !45
  %49 = getelementptr inbounds nuw %struct.zsetopval, ptr %48, i32 0, i32 5
  %50 = call i32 @string2ll(ptr noundef %43, i64 noundef %47, ptr noundef %49)
  %51 = icmp ne i32 %50, 0
  br i1 %51, label %52, label %57

52:                                               ; preds = %40
  %53 = load ptr, ptr %2, align 8, !tbaa !45
  %54 = getelementptr inbounds nuw %struct.zsetopval, ptr %53, i32 0, i32 0
  %55 = load i32, ptr %54, align 8, !tbaa !179
  %56 = or i32 %55, 4
  store i32 %56, ptr %54, align 8, !tbaa !179
  br label %57

57:                                               ; preds = %52, %40
  br label %63

58:                                               ; preds = %35
  %59 = load ptr, ptr %2, align 8, !tbaa !45
  %60 = getelementptr inbounds nuw %struct.zsetopval, ptr %59, i32 0, i32 0
  %61 = load i32, ptr %60, align 8, !tbaa !179
  %62 = or i32 %61, 4
  store i32 %62, ptr %60, align 8, !tbaa !179
  br label %63

63:                                               ; preds = %58, %57
  br label %64

64:                                               ; preds = %63, %34
  br label %65

65:                                               ; preds = %64, %1
  %66 = load ptr, ptr %2, align 8, !tbaa !45
  %67 = getelementptr inbounds nuw %struct.zsetopval, ptr %66, i32 0, i32 0
  %68 = load i32, ptr %67, align 8, !tbaa !179
  %69 = and i32 %68, 4
  ret i32 %69
}