; Function Attrs: nounwind uwtable
define dso_local range(i32 0, 5) i32 @zuiLongLongFromValue(ptr noundef %0) local_unnamed_addr #0 {
  %2 = load i32, ptr %0, align 8, !tbaa !161
  %3 = and i32 %2, 2
  %.not = icmp eq i32 %3, 0
  br i1 %.not, label %4, label %48

4:                                                ; preds = %1
  %5 = or disjoint i32 %2, 2
  store i32 %5, ptr %0, align 8, !tbaa !161
  %6 = getelementptr inbounds nuw i8, ptr %0, i64 40
  %7 = load ptr, ptr %6, align 8, !tbaa !163
  %.not15 = icmp eq ptr %7, null
  br i1 %.not15, label %35, label %8

8:                                                ; preds = %4
  %9 = getelementptr inbounds i8, ptr %7, i64 -1
  %10 = load i8, ptr %9, align 1, !tbaa !77
  %11 = zext i8 %10 to i32
  %12 = and i32 %11, 7
  switch i32 %12, label %sdslen.exit [
    i32 0, label %13
    i32 1, label %16
    i32 2, label %20
    i32 3, label %24
    i32 4, label %28
  ]

13:                                               ; preds = %8
  %14 = lshr i32 %11, 3
  %15 = zext nneg i32 %14 to i64
  br label %sdslen.exit

16:                                               ; preds = %8
  %17 = getelementptr inbounds i8, ptr %7, i64 -3
  %18 = load i8, ptr %17, align 1, !tbaa !77
  %19 = zext i8 %18 to i64
  br label %sdslen.exit

20:                                               ; preds = %8
  %21 = getelementptr inbounds i8, ptr %7, i64 -5
  %22 = load i16, ptr %21, align 1, !tbaa !79
  %23 = zext i16 %22 to i64
  br label %sdslen.exit

24:                                               ; preds = %8
  %25 = getelementptr inbounds i8, ptr %7, i64 -9
  %26 = load i32, ptr %25, align 1, !tbaa !78
  %27 = zext i32 %26 to i64
  br label %sdslen.exit

28:                                               ; preds = %8
  %29 = getelementptr inbounds i8, ptr %7, i64 -17
  %30 = load i64, ptr %29, align 1, !tbaa !26
  br label %sdslen.exit

sdslen.exit:                                      ; preds = %8, %13, %16, %20, %24, %28
  %.0.i = phi i64 [ %30, %28 ], [ %27, %24 ], [ %23, %20 ], [ %19, %16 ], [ %15, %13 ], [ 0, %8 ]
  %31 = getelementptr inbounds nuw i8, ptr %0, i64 64
  %32 = tail call i32 @string2ll(ptr noundef nonnull %7, i64 noundef %.0.i, ptr noundef nonnull %31) #18
  %.not18 = icmp eq i32 %32, 0
  %.pre = load i32, ptr %0, align 8, !tbaa !161
  br i1 %.not18, label %48, label %33

33:                                               ; preds = %sdslen.exit
  %34 = or i32 %.pre, 4
  br label %.sink.split

35:                                               ; preds = %4
  %36 = getelementptr inbounds nuw i8, ptr %0, i64 48
  %37 = load ptr, ptr %36, align 8, !tbaa !166
  %.not16 = icmp eq ptr %37, null
  br i1 %.not16, label %46, label %38

38:                                               ; preds = %35
  %39 = getelementptr inbounds nuw i8, ptr %0, i64 56
  %40 = load i32, ptr %39, align 8, !tbaa !167
  %41 = zext i32 %40 to i64
  %42 = getelementptr inbounds nuw i8, ptr %0, i64 64
  %43 = tail call i32 @string2ll(ptr noundef nonnull %37, i64 noundef %41, ptr noundef nonnull %42) #18
  %.not17 = icmp eq i32 %43, 0
  %.pre19 = load i32, ptr %0, align 8, !tbaa !161
  br i1 %.not17, label %48, label %44

44:                                               ; preds = %38
  %45 = or i32 %.pre19, 4
  br label %.sink.split

46:                                               ; preds = %35
  %47 = or i32 %2, 6
  br label %.sink.split

.sink.split:                                      ; preds = %46, %44, %33
  %.sink = phi i32 [ %34, %33 ], [ %45, %44 ], [ %47, %46 ]
  store i32 %.sink, ptr %0, align 8, !tbaa !161
  br label %48

48:                                               ; preds = %.sink.split, %sdslen.exit, %38, %1
  %49 = phi i32 [ %.pre, %sdslen.exit ], [ %.pre19, %38 ], [ %2, %1 ], [ %.sink, %.sink.split ]
  %50 = and i32 %49, 4
  ret i32 %50
}